target datalayout = "e-m:e-p270:32:32-p271:32:32-p272:64:64-i64:64-i128:128-f80:128-n8:16:32:64-S128"
target triple = "x86_64-pc-linux-gnu"

%struct.exr_attr_box2i_t = type { %struct.exr_attr_v2i_t, %struct.exr_attr_v2i_t }
%struct.exr_attr_v2i_t = type { i32, i32 }
%struct._priv_exr_context_t = type { i8, i8, i8, i8, i8, i8, i8, i8, %struct.exr_attr_string_t, %struct.exr_attr_string_t, ptr, ptr, ptr, ptr, ptr, ptr, ptr, ptr, i32, i32, i32, i32, i32, float, ptr, ptr, ptr, i64, ptr, ptr, i64, i32, i32, i32, i32, %struct._priv_exr_part_t, ptr, ptr, %struct.exr_attribute_list, %union.pthread_mutex_t, i8, i8, [2 x i8], i32 }
%struct.exr_attr_string_t = type { i32, i32, ptr }
%struct._priv_exr_part_t = type { i32, i32, %struct.exr_attribute_list, ptr, ptr, ptr, ptr, ptr, ptr, ptr, ptr, ptr, ptr, ptr, ptr, ptr, ptr, %struct.exr_attr_box2i_t, %struct.exr_attr_box2i_t, i32, i32, i32, float, i32, i32, ptr, ptr, ptr, ptr, i64, i16, i16, i32, i64, i64 }
%struct.exr_attribute_list = type { i32, i32, ptr, ptr }
%union.pthread_mutex_t = type { %struct.__pthread_mutex_s }
%struct.__pthread_mutex_s = type { i32, i32, i32, i32, i32, i16, i16, %struct.__pthread_internal_list }
%struct.__pthread_internal_list = type { ptr, ptr }
%struct.exr_attribute_t = type { ptr, ptr, i8, i8, [2 x i8], i32, %union.anon }
%union.anon = type { double }
%struct.exr_attr_chlist_t = type { i32, i32, ptr }
%struct.exr_attr_chlist_entry_t = type { %struct.exr_attr_string_t, i32, i8, [3 x i8], i32, i32 }

@.str.65 = private unnamed_addr constant [34 x i8] c"Invalid compression for deep data\00", align 1
@.str.66 = private unnamed_addr constant [66 x i8] c"channel '%s': x subsampling factor is not 1 (%d) for a deep image\00", align 1
@.str.67 = private unnamed_addr constant [66 x i8] c"channel '%s': y subsampling factor is not 1 (%d) for a deep image\00", align 1

; Function Attrs: nounwind uwtable
define internal i32 @validate_deep_data(ptr noundef %0, ptr noundef %1) #0 {
  %3 = alloca i32, align 4
  %4 = alloca ptr, align 8
  %5 = alloca ptr, align 8
  %6 = alloca ptr, align 8
  %7 = alloca i32, align 4
  %8 = alloca i32, align 4
  store ptr %0, ptr %4, align 8, !tbaa !3
  store ptr %1, ptr %5, align 8, !tbaa !8
  %9 = load ptr, ptr %5, align 8, !tbaa !8
  %10 = getelementptr inbounds nuw %struct._priv_exr_part_t, ptr %9, i32 0, i32 1
  %11 = load i32, ptr %10, align 4, !tbaa !71
  %12 = icmp eq i32 %11, 2
  br i1 %12, label %18, label %13

13:                                               ; preds = %2
  %14 = load ptr, ptr %5, align 8, !tbaa !8
  %15 = getelementptr inbounds nuw %struct._priv_exr_part_t, ptr %14, i32 0, i32 1
  %16 = load i32, ptr %15, align 4, !tbaa !71
  %17 = icmp eq i32 %16, 3
  br i1 %17, label %18, label %128

18:                                               ; preds = %13, %2
  call void @llvm.lifetime.start.p0(i64 8, ptr %6) #7
  %19 = load ptr, ptr %5, align 8, !tbaa !8
  %20 = getelementptr inbounds nuw %struct._priv_exr_part_t, ptr %19, i32 0, i32 3
  %21 = load ptr, ptr %20, align 8, !tbaa !56
  %22 = getelementptr inbounds nuw %struct.exr_attribute_t, ptr %21, i32 0, i32 6
  %23 = load ptr, ptr %22, align 8, !tbaa !27
  store ptr %23, ptr %6, align 8, !tbaa !57
  %24 = load ptr, ptr %5, align 8, !tbaa !8
  %25 = getelementptr inbounds nuw %struct._priv_exr_part_t, ptr %24, i32 0, i32 19
  %26 = load i32, ptr %25, align 8, !tbaa !28
  %27 = icmp ne i32 %26, 0
  br i1 %27, label %28, label %44

28:                                               ; preds = %18
  %29 = load ptr, ptr %5, align 8, !tbaa !8
  %30 = getelementptr inbounds nuw %struct._priv_exr_part_t, ptr %29, i32 0, i32 19
  %31 = load i32, ptr %30, align 8, !tbaa !28
  %32 = icmp ne i32 %31, 1
  br i1 %32, label %33, label %44

33:                                               ; preds = %28
  %34 = load ptr, ptr %5, align 8, !tbaa !8
  %35 = getelementptr inbounds nuw %struct._priv_exr_part_t, ptr %34, i32 0, i32 19
  %36 = load i32, ptr %35, align 8, !tbaa !28
  %37 = icmp ne i32 %36, 2
  br i1 %37, label %38, label %44

38:                                               ; preds = %33
  %39 = load ptr, ptr %4, align 8, !tbaa !3
  %40 = getelementptr inbounds nuw %struct._priv_exr_context_t, ptr %39, i32 0, i32 13
  %41 = load ptr, ptr %40, align 8, !tbaa !58
  %42 = load ptr, ptr %4, align 8, !tbaa !3
  %43 = call i32 %41(ptr noundef %42, i32 noundef 14, ptr noundef @.str.65)
  store i32 %43, ptr %3, align 4
  store i32 1, ptr %7, align 4
  br label %125

44:                                               ; preds = %33, %28, %18
  call void @llvm.lifetime.start.p0(i64 4, ptr %8) #7
  store i32 0, ptr %8, align 4, !tbaa !25
  br label %45

45:                                               ; preds = %119, %44
  %46 = load i32, ptr %8, align 4, !tbaa !25
  %47 = load ptr, ptr %6, align 8, !tbaa !57
  %48 = getelementptr inbounds nuw %struct.exr_attr_chlist_t, ptr %47, i32 0, i32 0
  %49 = load i32, ptr %48, align 8, !tbaa !59
  %50 = icmp slt i32 %46, %49
  br i1 %50, label %52, label %51

51:                                               ; preds = %45
  store i32 2, ptr %7, align 4
  br label %122

52:                                               ; preds = %45
  %53 = load ptr, ptr %6, align 8, !tbaa !57
  %54 = getelementptr inbounds nuw %struct.exr_attr_chlist_t, ptr %53, i32 0, i32 2
  %55 = load ptr, ptr %54, align 8, !tbaa !61
  %56 = load i32, ptr %8, align 4, !tbaa !25
  %57 = sext i32 %56 to i64
  %58 = getelementptr inbounds %struct.exr_attr_chlist_entry_t, ptr %55, i64 %57
  %59 = getelementptr inbounds nuw %struct.exr_attr_chlist_entry_t, ptr %58, i32 0, i32 4
  %60 = load i32, ptr %59, align 8, !tbaa !62
  %61 = icmp ne i32 %60, 1
  br i1 %61, label %62, label %85

62:                                               ; preds = %52
  %63 = load ptr, ptr %4, align 8, !tbaa !3
  %64 = getelementptr inbounds nuw %struct._priv_exr_context_t, ptr %63, i32 0, i32 14
  %65 = load ptr, ptr %64, align 8, !tbaa !29
  %66 = load ptr, ptr %4, align 8, !tbaa !3
  %67 = load ptr, ptr %6, align 8, !tbaa !57
  %68 = getelementptr inbounds nuw %struct.exr_attr_chlist_t, ptr %67, i32 0, i32 2
  %69 = load ptr, ptr %68, align 8, !tbaa !61
  %70 = load i32, ptr %8, align 4, !tbaa !25
  %71 = sext i32 %70 to i64
  %72 = getelementptr inbounds %struct.exr_attr_chlist_entry_t, ptr %69, i64 %71
  %73 = getelementptr inbounds nuw %struct.exr_attr_chlist_entry_t, ptr %72, i32 0, i32 0
  %74 = getelementptr inbounds nuw %struct.exr_attr_string_t, ptr %73, i32 0, i32 2
  %75 = load ptr, ptr %74, align 8, !tbaa !65
  %76 = load ptr, ptr %6, align 8, !tbaa !57
  %77 = getelementptr inbounds nuw %struct.exr_attr_chlist_t, ptr %76, i32 0, i32 2
  %78 = load ptr, ptr %77, align 8, !tbaa !61
  %79 = load i32, ptr %8, align 4, !tbaa !25
  %80 = sext i32 %79 to i64
  %81 = getelementptr inbounds %struct.exr_attr_chlist_entry_t, ptr %78, i64 %80
  %82 = getelementptr inbounds nuw %struct.exr_attr_chlist_entry_t, ptr %81, i32 0, i32 4
  %83 = load i32, ptr %82, align 8, !tbaa !62
  %84 = call i32 (ptr, i32, ptr, ...) %65(ptr noundef %66, i32 noundef 14, ptr noundef @.str.66, ptr noundef %75, i32 noundef %83)
  store i32 %84, ptr %3, align 4
  store i32 1, ptr %7, align 4
  br label %122

85:                                               ; preds = %52
  %86 = load ptr, ptr %6, align 8, !tbaa !57
  %87 = getelementptr inbounds nuw %struct.exr_attr_chlist_t, ptr %86, i32 0, i32 2
  %88 = load ptr, ptr %87, align 8, !tbaa !61
  %89 = load i32, ptr %8, align 4, !tbaa !25
  %90 = sext i32 %89 to i64
  %91 = getelementptr inbounds %struct.exr_attr_chlist_entry_t, ptr %88, i64 %90
  %92 = getelementptr inbounds nuw %struct.exr_attr_chlist_entry_t, ptr %91, i32 0, i32 5
  %93 = load i32, ptr %92, align 4, !tbaa !64
  %94 = icmp ne i32 %93, 1
  br i1 %94, label %95, label %118

95:                                               ; preds = %85
  %96 = load ptr, ptr %4, align 8, !tbaa !3
  %97 = getelementptr inbounds nuw %struct._priv_exr_context_t, ptr %96, i32 0, i32 14
  %98 = load ptr, ptr %97, align 8, !tbaa !29
  %99 = load ptr, ptr %4, align 8, !tbaa !3
  %100 = load ptr, ptr %6, align 8, !tbaa !57
  %101 = getelementptr inbounds nuw %struct.exr_attr_chlist_t, ptr %100, i32 0, i32 2
  %102 = load ptr, ptr %101, align 8, !tbaa !61
  %103 = load i32, ptr %8, align 4, !tbaa !25
  %104 = sext i32 %103 to i64
  %105 = getelementptr inbounds %struct.exr_attr_chlist_entry_t, ptr %102, i64 %104
  %106 = getelementptr inbounds nuw %struct.exr_attr_chlist_entry_t, ptr %105, i32 0, i32 0
  %107 = getelementptr inbounds nuw %struct.exr_attr_string_t, ptr %106, i32 0, i32 2
  %108 = load ptr, ptr %107, align 8, !tbaa !65
  %109 = load ptr, ptr %6, align 8, !tbaa !57
  %110 = getelementptr inbounds nuw %struct.exr_attr_chlist_t, ptr %109, i32 0, i32 2
  %111 = load ptr, ptr %110, align 8, !tbaa !61
  %112 = load i32, ptr %8, align 4, !tbaa !25
  %113 = sext i32 %112 to i64
  %114 = getelementptr inbounds %struct.exr_attr_chlist_entry_t, ptr %111, i64 %113
  %115 = getelementptr inbounds nuw %struct.exr_attr_chlist_entry_t, ptr %114, i32 0, i32 5
  %116 = load i32, ptr %115, align 4, !tbaa !64
  %117 = call i32 (ptr, i32, ptr, ...) %98(ptr noundef %99, i32 noundef 14, ptr noundef @.str.67, ptr noundef %108, i32 noundef %116)
  store i32 %117, ptr %3, align 4
  store i32 1, ptr %7, align 4
  br label %122

118:                                              ; preds = %85
  br label %119

119:                                              ; preds = %118
  %120 = load i32, ptr %8, align 4, !tbaa !25
  %121 = add nsw i32 %120, 1
  store i32 %121, ptr %8, align 4, !tbaa !25
  br label %45, !llvm.loop !82

122:                                              ; preds = %95, %62, %51
  call void @llvm.lifetime.end.p0(i64 4, ptr %8) #7
  %123 = load i32, ptr %7, align 4
  switch i32 %123, label %125 [
    i32 2, label %124
  ]

124:                                              ; preds = %122
  store i32 0, ptr %7, align 4
  br label %125

125:                                              ; preds = %124, %122, %38
  call void @llvm.lifetime.end.p0(i64 8, ptr %6) #7
  %126 = load i32, ptr %7, align 4
  switch i32 %126, label %131 [
    i32 0, label %127
    i32 1, label %129
  ]

127:                                              ; preds = %125
  br label %128

128:                                              ; preds = %127, %13
  store i32 0, ptr %3, align 4
  br label %129

129:                                              ; preds = %128, %125
  %130 = load i32, ptr %3, align 4
  ret i32 %130

131:                                              ; preds = %125
  unreachable
}