; Function Attrs: nounwind uwtable
define internal fastcc i32 @validate_deep_data(ptr noundef %0, ptr noundef readonly captures(none) %1) unnamed_addr #0 {
  %3 = getelementptr inbounds nuw i8, ptr %1, i64 4
  %4 = load i32, ptr %3, align 4, !tbaa !59
  %5 = and i32 %4, -2
  %switch41 = icmp eq i32 %5, 2
  br i1 %switch41, label %6, label %.thread

6:                                                ; preds = %2
  %7 = getelementptr inbounds nuw i8, ptr %1, i64 32
  %8 = load ptr, ptr %7, align 8, !tbaa !46
  %9 = getelementptr inbounds nuw i8, ptr %8, i64 24
  %10 = load ptr, ptr %9, align 8, !tbaa !27
  %11 = getelementptr inbounds nuw i8, ptr %1, i64 176
  %12 = load i32, ptr %11, align 8, !tbaa !28
  %switch42 = icmp ult i32 %12, 3
  br i1 %switch42, label %.preheader, label %16

.preheader:                                       ; preds = %6
  %13 = load i32, ptr %10, align 8, !tbaa !48
  %.not4050 = icmp sgt i32 %13, 0
  br i1 %.not4050, label %.lr.ph, label %.thread

.lr.ph:                                           ; preds = %.preheader
  %14 = getelementptr inbounds nuw i8, ptr %10, i64 8
  %15 = load ptr, ptr %14, align 8, !tbaa !50
  %wide.trip.count = zext nneg i32 %13 to i64
  br label %21

16:                                               ; preds = %6
  %17 = getelementptr inbounds nuw i8, ptr %0, i64 64
  %18 = load ptr, ptr %17, align 8, !tbaa !47
  %19 = tail call i32 %18(ptr noundef %0, i32 noundef 14, ptr noundef nonnull @.str.65) #7
  br label %.thread

20:                                               ; preds = %31
  %indvars.iv.next = add nuw nsw i64 %indvars.iv, 1
  %exitcond.not = icmp eq i64 %indvars.iv.next, %wide.trip.count
  br i1 %exitcond.not, label %.thread, label %21, !llvm.loop !70

21:                                               ; preds = %.lr.ph, %20
  %indvars.iv = phi i64 [ 0, %.lr.ph ], [ %indvars.iv.next, %20 ]
  %22 = getelementptr inbounds nuw %struct.exr_attr_chlist_entry_t, ptr %15, i64 %indvars.iv
  %23 = getelementptr inbounds nuw i8, ptr %22, i64 24
  %24 = load i32, ptr %23, align 8, !tbaa !53
  %.not38 = icmp eq i32 %24, 1
  br i1 %.not38, label %31, label %25

25:                                               ; preds = %21
  %26 = getelementptr inbounds nuw i8, ptr %0, i64 72
  %27 = load ptr, ptr %26, align 8, !tbaa !23
  %28 = getelementptr inbounds nuw i8, ptr %22, i64 8
  %29 = load ptr, ptr %28, align 8, !tbaa !56
  %30 = tail call i32 (ptr, i32, ptr, ...) %27(ptr noundef %0, i32 noundef 14, ptr noundef nonnull @.str.66, ptr noundef %29, i32 noundef %24) #7
  br label %.thread

31:                                               ; preds = %21
  %32 = getelementptr inbounds nuw i8, ptr %22, i64 28
  %33 = load i32, ptr %32, align 4, !tbaa !55
  %.not39 = icmp eq i32 %33, 1
  br i1 %.not39, label %20, label %34

34:                                               ; preds = %31
  %35 = getelementptr inbounds nuw i8, ptr %0, i64 72
  %36 = load ptr, ptr %35, align 8, !tbaa !23
  %37 = getelementptr inbounds nuw i8, ptr %22, i64 8
  %38 = load ptr, ptr %37, align 8, !tbaa !56
  %39 = tail call i32 (ptr, i32, ptr, ...) %36(ptr noundef %0, i32 noundef 14, ptr noundef nonnull @.str.67, ptr noundef %38, i32 noundef %33) #7
  br label %.thread

.thread:                                          ; preds = %20, %.preheader, %34, %25, %16, %2
  %.2 = phi i32 [ 0, %2 ], [ %39, %34 ], [ %30, %25 ], [ %19, %16 ], [ 0, %.preheader ], [ 0, %20 ]
  ret i32 %.2
}